; Function Attrs: alwaysinline norecurse nounwind uwtable
define internal void @_Z4testmmmm.omp_outlined.6(ptr noalias noundef readonly captures(none) %0, ptr noalias readnone captures(none) %1, ptr noundef nonnull readonly align 8 captures(none) dereferenceable(8) %2, ptr noundef nonnull readonly align 8 captures(none) dereferenceable(24) %3, ptr noundef nonnull readonly align 8 captures(none) dereferenceable(8) %4, ptr noundef nonnull readonly align 8 captures(none) dereferenceable(24) %5, ptr noundef nonnull readonly align 8 captures(none) dereferenceable(24) %6) #10 personality ptr @__gxx_personality_v0 {
  %8 = alloca i64, align 8
  %9 = alloca i64, align 8
  %10 = alloca i64, align 8
  %11 = alloca i32, align 4
  %12 = load i64, ptr %2, align 8, !tbaa !5
  %.not = icmp eq i64 %12, 0
  br i1 %.not, label %41, label %13

13:                                               ; preds = %7
  %14 = add i64 %12, -1
  call void @llvm.lifetime.start.p0(i64 8, ptr nonnull %8) #13
  store i64 0, ptr %8, align 8, !tbaa !5
  call void @llvm.lifetime.start.p0(i64 8, ptr nonnull %9) #13
  store i64 %14, ptr %9, align 8, !tbaa !5
  call void @llvm.lifetime.start.p0(i64 8, ptr nonnull %10) #13
  store i64 1, ptr %10, align 8, !tbaa !5
  call void @llvm.lifetime.start.p0(i64 4, ptr nonnull %11) #13
  store i32 0, ptr %11, align 4, !tbaa !24
  %15 = load i32, ptr %0, align 4, !tbaa !24
  tail call void @__kmpc_dispatch_init_8u(ptr nonnull @1, i32 %15, i32 1073741860, i64 0, i64 %14, i64 1, i64 1)
  %16 = call i32 @__kmpc_dispatch_next_8u(ptr nonnull @1, i32 %15, ptr nonnull %11, ptr nonnull %8, ptr nonnull %9, ptr nonnull %10)
  %.not1618 = icmp eq i32 %16, 0
  br i1 %.not1618, label %._crit_edge, label %.lr.ph19

.loopexit:                                        ; preds = %_ZN5faiss20distance_single_codeINS_10PQDecoder8EEEfmmPKfPKh.exit.loopexit, %_ZN5faiss20distance_single_codeINS_10PQDecoder8EEEfmmPKfPKh.exit.us.preheader, %.lr.ph19
  %17 = call i32 @__kmpc_dispatch_next_8u(ptr nonnull @1, i32 %15, ptr nonnull %11, ptr nonnull %8, ptr nonnull %9, ptr nonnull %10)
  %.not16 = icmp eq i32 %17, 0
  br i1 %.not16, label %._crit_edge, label %.lr.ph19

.lr.ph19:                                         ; preds = %13, %.loopexit
  %18 = load i64, ptr %8, align 8, !tbaa !5
  %19 = load i64, ptr %9, align 8, !tbaa !5, !llvm.access.group !132
  %20 = add i64 %19, 1
  %21 = icmp ult i64 %18, %20
  br i1 %21, label %.lr.ph, label %.loopexit

.lr.ph:                                           ; preds = %.lr.ph19
  %22 = load i64, ptr %4, align 8, !tbaa !5, !llvm.access.group !132
  %23 = load ptr, ptr %5, align 8, !tbaa !17, !llvm.access.group !132
  %24 = load ptr, ptr %6, align 8, !tbaa !26, !llvm.access.group !132
  %.not.i.i = icmp eq i64 %22, 0
  %25 = load ptr, ptr %3, align 8, !tbaa !17, !llvm.access.group !132
  br i1 %.not.i.i, label %_ZN5faiss20distance_single_codeINS_10PQDecoder8EEEfmmPKfPKh.exit.us.preheader, label %.lr.ph.i.i.preheader

_ZN5faiss20distance_single_codeINS_10PQDecoder8EEEfmmPKfPKh.exit.us.preheader: ; preds = %.lr.ph
  %26 = shl i64 %18, 2
  %scevgep = getelementptr i8, ptr %25, i64 %26
  %27 = sub i64 %20, %18
  %28 = shl nuw i64 %27, 2
  call void @llvm.memset.p0.i64(ptr align 4 %scevgep, i8 0, i64 %28, i1 false), !tbaa !21
  br label %.loopexit

.lr.ph.i.i.preheader:                             ; preds = %.lr.ph, %_ZN5faiss20distance_single_codeINS_10PQDecoder8EEEfmmPKfPKh.exit.loopexit
  %.017 = phi i64 [ %40, %_ZN5faiss20distance_single_codeINS_10PQDecoder8EEEfmmPKfPKh.exit.loopexit ], [ %18, %.lr.ph ]
  %29 = mul i64 %22, %.017
  %30 = getelementptr inbounds nuw i8, ptr %24, i64 %29
  br label %.lr.ph.i.i

.lr.ph.i.i:                                       ; preds = %.lr.ph.i.i.preheader, %.lr.ph.i.i
  %.016.i.i = phi i64 [ %38, %.lr.ph.i.i ], [ 0, %.lr.ph.i.i.preheader ]
  %.01115.i.i = phi float [ %36, %.lr.ph.i.i ], [ 0.000000e+00, %.lr.ph.i.i.preheader ]
  %.01214.i.i = phi ptr [ %37, %.lr.ph.i.i ], [ %23, %.lr.ph.i.i.preheader ]
  %.sroa.0.013.i.i = phi ptr [ %31, %.lr.ph.i.i ], [ %30, %.lr.ph.i.i.preheader ]
  %31 = getelementptr inbounds nuw i8, ptr %.sroa.0.013.i.i, i64 1
  %32 = load i8, ptr %.sroa.0.013.i.i, align 1, !tbaa !15, !llvm.access.group !132
  %33 = zext i8 %32 to i64
  %34 = getelementptr inbounds nuw float, ptr %.01214.i.i, i64 %33
  %35 = load float, ptr %34, align 4, !tbaa !21, !llvm.access.group !132
  %36 = fadd float %.01115.i.i, %35
  %37 = getelementptr inbounds nuw i8, ptr %.01214.i.i, i64 1024
  %38 = add nuw i64 %.016.i.i, 1
  %exitcond.not.i.i = icmp eq i64 %38, %22
  br i1 %exitcond.not.i.i, label %_ZN5faiss20distance_single_codeINS_10PQDecoder8EEEfmmPKfPKh.exit.loopexit, label %.lr.ph.i.i, !llvm.loop !108

_ZN5faiss20distance_single_codeINS_10PQDecoder8EEEfmmPKfPKh.exit.loopexit: ; preds = %.lr.ph.i.i
  %39 = getelementptr inbounds nuw float, ptr %25, i64 %.017
  store float %36, ptr %39, align 4, !tbaa !21, !llvm.access.group !132
  %40 = add nuw i64 %.017, 1
  %exitcond.not = icmp eq i64 %.017, %19
  br i1 %exitcond.not, label %.loopexit, label %.lr.ph.i.i.preheader, !llvm.loop !133

._crit_edge:                                      ; preds = %.loopexit, %13
  call void @__kmpc_dispatch_deinit(ptr nonnull @1, i32 %15)
  call void @llvm.lifetime.end.p0(i64 4, ptr nonnull %11) #13
  call void @llvm.lifetime.end.p0(i64 8, ptr nonnull %10) #13
  call void @llvm.lifetime.end.p0(i64 8, ptr nonnull %9) #13
  call void @llvm.lifetime.end.p0(i64 8, ptr nonnull %8) #13
  br label %41

41:                                               ; preds = %._crit_edge, %7
  ret void
}